target datalayout = "e-m:e-p270:32:32-p271:32:32-p272:64:64-i64:64-i128:128-f80:128-n8:16:32:64-S128"
target triple = "x86_64-pc-linux-gnu"

%"class.gmx::CorrelationTensor" = type { %"class.std::vector.0" }
%"class.std::vector.0" = type { %"struct.std::_Vector_base.1" }
%"struct.std::_Vector_base.1" = type { %"struct.std::_Vector_base<gmx::CorrelationBlockData, std::allocator<gmx::CorrelationBlockData>>::_Vector_impl" }
%"struct.std::_Vector_base<gmx::CorrelationBlockData, std::allocator<gmx::CorrelationBlockData>>::_Vector_impl" = type { %"struct.std::_Vector_base<gmx::CorrelationBlockData, std::allocator<gmx::CorrelationBlockData>>::_Vector_impl_data" }
%"struct.std::_Vector_base<gmx::CorrelationBlockData, std::allocator<gmx::CorrelationBlockData>>::_Vector_impl_data" = type { ptr, ptr, ptr }
%"class.gmx::CorrelationGrid" = type { double, i32, %"class.std::vector" }
%"class.std::vector" = type { %"struct.std::_Vector_base" }
%"struct.std::_Vector_base" = type { %"struct.std::_Vector_base<gmx::CorrelationTensor, std::allocator<gmx::CorrelationTensor>>::_Vector_impl" }
%"struct.std::_Vector_base<gmx::CorrelationTensor, std::allocator<gmx::CorrelationTensor>>::_Vector_impl" = type { %"struct.std::_Vector_base<gmx::CorrelationTensor, std::allocator<gmx::CorrelationTensor>>::_Vector_impl_data" }
%"struct.std::_Vector_base<gmx::CorrelationTensor, std::allocator<gmx::CorrelationTensor>>::_Vector_impl_data" = type { ptr, ptr, ptr }
%class.anon = type { i8 }

@.str = private unnamed_addr constant [44 x i8] c"(1 << (blockDataListSize - 1)) == numBlocks\00", align 1
@.str.1 = private unnamed_addr constant [33 x i8] c"numBlocks should be a power of 2\00", align 1
@"__PRETTY_FUNCTION__._ZZN3gmx12_GLOBAL__N_120getBlockDataListSizeEiENK3$_0clEv" = private unnamed_addr constant [98 x i8] c"auto gmx::(anonymous namespace)::getBlockDataListSize(int)::(anonymous class)::operator()() const\00", align 1
@.str.2 = private unnamed_addr constant [144 x i8] c"generated/home/dtcxzyw/WorkSpace/Projects/compilers/llvm-opt-benchmark/bench/gromacs/gromacs/src/gromacs/applied_forces/awh/correlationgrid.cpp\00", align 1

; Function Attrs: mustprogress nounwind uwtable
define linkonce_odr void @_ZNSt15__new_allocatorIN3gmx17CorrelationTensorEEC2Ev(ptr noundef nonnull align 1 dereferenceable(1) %0) unnamed_addr #1 comdat align 2 {
  %2 = alloca ptr, align 8
  store ptr %0, ptr %2, align 8
  ret void
}

; Function Attrs: mustprogress nounwind uwtable
define linkonce_odr void @_ZNSt12_Vector_baseIN3gmx17CorrelationTensorESaIS1_EE17_Vector_impl_dataC2Ev(ptr noundef nonnull align 8 dereferenceable(24) %0) unnamed_addr #1 comdat align 2 {
  %2 = alloca ptr, align 8
  store ptr %0, ptr %2, align 8
  %3 = load ptr, ptr %2, align 8
  %4 = getelementptr inbounds %"struct.std::_Vector_base<gmx::CorrelationTensor, std::allocator<gmx::CorrelationTensor>>::_Vector_impl_data", ptr %3, i32 0, i32 0
  store ptr null, ptr %4, align 8
  %5 = getelementptr inbounds %"struct.std::_Vector_base<gmx::CorrelationTensor, std::allocator<gmx::CorrelationTensor>>::_Vector_impl_data", ptr %3, i32 0, i32 1
  store ptr null, ptr %5, align 8
  %6 = getelementptr inbounds %"struct.std::_Vector_base<gmx::CorrelationTensor, std::allocator<gmx::CorrelationTensor>>::_Vector_impl_data", ptr %3, i32 0, i32 2
  store ptr null, ptr %6, align 8
  ret void
}

; Function Attrs: mustprogress nounwind uwtable
define linkonce_odr void @_ZNSaIN3gmx17CorrelationTensorEEC2Ev(ptr noundef nonnull align 1 dereferenceable(1) %0) unnamed_addr #1 comdat align 2 {
  %2 = alloca ptr, align 8
  store ptr %0, ptr %2, align 8
  %3 = load ptr, ptr %2, align 8
  call void @_ZNSt15__new_allocatorIN3gmx17CorrelationTensorEEC2Ev(ptr noundef nonnull align 1 dereferenceable(1) %3) #9
  ret void
}

; Function Attrs: mustprogress nounwind uwtable
define linkonce_odr void @_ZNSt12_Vector_baseIN3gmx17CorrelationTensorESaIS1_EE12_Vector_implC2Ev(ptr noundef nonnull align 8 dereferenceable(24) %0) unnamed_addr #1 comdat align 2 {
  %2 = alloca ptr, align 8
  store ptr %0, ptr %2, align 8
  %3 = load ptr, ptr %2, align 8
  call void @_ZNSaIN3gmx17CorrelationTensorEEC2Ev(ptr noundef nonnull align 1 dereferenceable(1) %3) #9
  call void @_ZNSt12_Vector_baseIN3gmx17CorrelationTensorESaIS1_EE17_Vector_impl_dataC2Ev(ptr noundef nonnull align 8 dereferenceable(24) %3) #9
  ret void
}

; Function Attrs: mustprogress uwtable
define internal void @"_ZZN3gmx12_GLOBAL__N_120getBlockDataListSizeEiENK3$_0clEv"(ptr noundef nonnull align 1 dereferenceable(1) %0) #0 align 2 {
  %2 = alloca ptr, align 8
  store ptr %0, ptr %2, align 8
  call void @_ZN3gmx8internal13assertHandlerEPKcS2_S2_S2_i(ptr noundef @.str, ptr noundef @.str.1, ptr noundef @"__PRETTY_FUNCTION__._ZZN3gmx12_GLOBAL__N_120getBlockDataListSizeEiENK3$_0clEv", ptr noundef @.str.2, i32 noundef 75) #11
  unreachable
}

; Function Attrs: mustprogress nounwind uwtable
define linkonce_odr void @_ZNSt12_Vector_baseIN3gmx17CorrelationTensorESaIS1_EEC2Ev(ptr noundef nonnull align 8 dereferenceable(24) %0) unnamed_addr #1 comdat align 2 {
  %2 = alloca ptr, align 8
  store ptr %0, ptr %2, align 8
  %3 = load ptr, ptr %2, align 8
  %4 = getelementptr inbounds %"struct.std::_Vector_base", ptr %3, i32 0, i32 0
  call void @_ZNSt12_Vector_baseIN3gmx17CorrelationTensorESaIS1_EE12_Vector_implC2Ev(ptr noundef nonnull align 8 dereferenceable(24) %4) #9
  ret void
}

; Function Attrs: mustprogress uwtable
define internal noundef i32 @_ZN3gmx12_GLOBAL__N_120getBlockDataListSizeEi(i32 noundef %0) #0 {
  %2 = alloca i32, align 4
  %3 = alloca i32, align 4
  %4 = alloca %class.anon, align 1
  store i32 %0, ptr %2, align 4
  store i32 1, ptr %3, align 4
  br label %5

5:                                                ; preds = %11, %1
  %6 = load i32, ptr %2, align 4
  %7 = load i32, ptr %3, align 4
  %8 = sub nsw i32 %7, 1
  %9 = shl i32 1, %8
  %10 = icmp sgt i32 %6, %9
  br i1 %10, label %11, label %14

11:                                               ; preds = %5
  %12 = load i32, ptr %3, align 4
  %13 = add nsw i32 %12, 1
  store i32 %13, ptr %3, align 4
  br label %5, !llvm.loop !5

14:                                               ; preds = %5
  %15 = load i32, ptr %3, align 4
  %16 = sub nsw i32 %15, 1
  %17 = shl i32 1, %16
  %18 = load i32, ptr %2, align 4
  %19 = icmp eq i32 %17, %18
  br i1 %19, label %20, label %21

20:                                               ; preds = %14
  br label %22

21:                                               ; preds = %14
  call void @"_ZZN3gmx12_GLOBAL__N_120getBlockDataListSizeEiENK3$_0clEv"(ptr noundef nonnull align 1 dereferenceable(1) %4)
  br label %22

22:                                               ; preds = %21, %20
  %23 = load i32, ptr %3, align 4
  ret i32 %23
}

; Function Attrs: mustprogress nounwind uwtable
define linkonce_odr void @_ZNSt6vectorIN3gmx17CorrelationTensorESaIS1_EEC2Ev(ptr noundef nonnull align 8 dereferenceable(24) %0) unnamed_addr #1 comdat align 2 {
  %2 = alloca ptr, align 8
  store ptr %0, ptr %2, align 8
  %3 = load ptr, ptr %2, align 8
  call void @_ZNSt12_Vector_baseIN3gmx17CorrelationTensorESaIS1_EEC2Ev(ptr noundef nonnull align 8 dereferenceable(24) %3) #9
  ret void
}

; Function Attrs: mustprogress uwtable
define void @_ZN3gmx15CorrelationGridC2EiidNS0_18BlockLengthMeasureEd(ptr noundef nonnull align 8 dereferenceable(40) %0, i32 noundef %1, i32 noundef %2, double noundef %3, i32 noundef %4, double noundef %5) unnamed_addr #0 align 2 personality ptr @__gxx_personality_v0 {
  %7 = alloca ptr, align 8
  %8 = alloca i32, align 4
  %9 = alloca i32, align 4
  %10 = alloca double, align 8
  %11 = alloca i32, align 4
  %12 = alloca double, align 8
  %13 = alloca i32, align 4
  %14 = alloca i32, align 4
  %15 = alloca ptr, align 8
  %16 = alloca i32, align 4
  %17 = alloca %"class.gmx::CorrelationTensor", align 8
  store ptr %0, ptr %7, align 8
  store i32 %1, ptr %8, align 4
  store i32 %2, ptr %9, align 4
  store double %3, ptr %10, align 8
  store i32 %4, ptr %11, align 4
  store double %5, ptr %12, align 8
  %18 = load ptr, ptr %7, align 8
  %19 = getelementptr inbounds %"class.gmx::CorrelationGrid", ptr %18, i32 0, i32 0
  %20 = load double, ptr %12, align 8
  store double %20, ptr %19, align 8
  %21 = getelementptr inbounds %"class.gmx::CorrelationGrid", ptr %18, i32 0, i32 1
  %22 = load i32, ptr %11, align 4
  store i32 %22, ptr %21, align 8
  %23 = getelementptr inbounds %"class.gmx::CorrelationGrid", ptr %18, i32 0, i32 2
  call void @_ZNSt6vectorIN3gmx17CorrelationTensorESaIS1_EEC2Ev(ptr noundef nonnull align 8 dereferenceable(24) %23) #9
  %24 = load i32, ptr %11, align 4
  %25 = icmp eq i32 %24, 1
  br i1 %25, label %26, label %34

26:                                               ; preds = %6
  %27 = load double, ptr %10, align 8
  %28 = fcmp ogt double %27, 0.000000e+00
  br i1 %28, label %29, label %31

29:                                               ; preds = %26
  %30 = load double, ptr %10, align 8
  br label %32

31:                                               ; preds = %26
  br label %32

32:                                               ; preds = %31, %29
  %33 = phi double [ %30, %29 ], [ 1.000000e+00, %31 ]
  store double %33, ptr %10, align 8
  br label %43

34:                                               ; preds = %6
  %35 = load double, ptr %10, align 8
  %36 = fcmp ogt double %35, 0.000000e+00
  br i1 %36, label %37, label %39

37:                                               ; preds = %34
  %38 = load double, ptr %10, align 8
  br label %41

39:                                               ; preds = %34
  %40 = load double, ptr %12, align 8
  br label %41

41:                                               ; preds = %39, %37
  %42 = phi double [ %38, %37 ], [ %40, %39 ]
  store double %42, ptr %10, align 8
  br label %43

43:                                               ; preds = %41, %32
  store i32 64, ptr %13, align 4
  %44 = load i32, ptr %13, align 4
  %45 = invoke noundef i32 @_ZN3gmx12_GLOBAL__N_120getBlockDataListSizeEi(i32 noundef %44)
          to label %46 unwind label %55

46:                                               ; preds = %43
  store i32 %45, ptr %14, align 4
  %47 = getelementptr inbounds %"class.gmx::CorrelationGrid", ptr %18, i32 0, i32 2
  %48 = load i32, ptr %8, align 4
  %49 = sext i32 %48 to i64
  %50 = load i32, ptr %9, align 4
  %51 = load i32, ptr %14, align 4
  %52 = load double, ptr %10, align 8
  invoke void @_ZN3gmx17CorrelationTensorC1Eiid(ptr noundef nonnull align 8 dereferenceable(24) %17, i32 noundef %50, i32 noundef %51, double noundef %52)
          to label %53 unwind label %55

53:                                               ; preds = %46
  invoke void @_ZNSt6vectorIN3gmx17CorrelationTensorESaIS1_EE6resizeEmRKS1_(ptr noundef nonnull align 8 dereferenceable(24) %47, i64 noundef %49, ptr noundef nonnull align 8 dereferenceable(24) %17)
          to label %54 unwind label %59

54:                                               ; preds = %53
  call void @_ZN3gmx17CorrelationTensorD2Ev(ptr noundef nonnull align 8 dereferenceable(24) %17) #9
  ret void

55:                                               ; preds = %46, %43
  %56 = landingpad { ptr, i32 }
          cleanup
  %57 = extractvalue { ptr, i32 } %56, 0
  store ptr %57, ptr %15, align 8
  %58 = extractvalue { ptr, i32 } %56, 1
  store i32 %58, ptr %16, align 4
  br label %63

59:                                               ; preds = %53
  %60 = landingpad { ptr, i32 }
          cleanup
  %61 = extractvalue { ptr, i32 } %60, 0
  store ptr %61, ptr %15, align 8
  %62 = extractvalue { ptr, i32 } %60, 1
  store i32 %62, ptr %16, align 4
  call void @_ZN3gmx17CorrelationTensorD2Ev(ptr noundef nonnull align 8 dereferenceable(24) %17) #9
  br label %63

63:                                               ; preds = %59, %55
  call void @_ZNSt6vectorIN3gmx17CorrelationTensorESaIS1_EED2Ev(ptr noundef nonnull align 8 dereferenceable(24) %23) #9
  br label %64

64:                                               ; preds = %63
  %65 = load ptr, ptr %15, align 8
  %66 = load i32, ptr %16, align 4
  %67 = insertvalue { ptr, i32 } poison, ptr %65, 0
  %68 = insertvalue { ptr, i32 } %67, i32 %66, 1
  resume { ptr, i32 } %68
}