; Function Attrs: mustprogress uwtable
define void @_ZN3gmx15CorrelationGridC2EiidNS0_18BlockLengthMeasureEd(ptr noundef nonnull align 8 dereferenceable(40) %0, i32 noundef %1, i32 noundef %2, double noundef %3, i32 noundef %4, double noundef %5) unnamed_addr #0 align 2 personality ptr @__gxx_personality_v0 {
  %7 = alloca %"class.gmx::CorrelationTensor", align 8
  store double %5, ptr %0, align 8
  %8 = getelementptr inbounds i8, ptr %0, i64 8
  store i32 %4, ptr %8, align 8
  %9 = getelementptr inbounds i8, ptr %0, i64 16
  tail call void @llvm.memset.p0.i64(ptr noundef nonnull align 8 dereferenceable(24) %9, i8 0, i64 24, i1 false)
  %10 = icmp eq i32 %4, 1
  %11 = fcmp ogt double %3, 0.000000e+00
  %. = select i1 %10, double 1.000000e+00, double %5
  %12 = select i1 %11, double %3, double %.
  invoke void @_ZN3gmx17CorrelationTensorC1Eiid(ptr noundef nonnull align 8 dereferenceable(24) %7, i32 noundef %2, i32 noundef 7, double noundef %12)
          to label %13 unwind label %28

13:                                               ; preds = %6
  %14 = sext i32 %1 to i64
  invoke void @_ZNSt6vectorIN3gmx17CorrelationTensorESaIS1_EE6resizeEmRKS1_(ptr noundef nonnull align 8 dereferenceable(24) %9, i64 noundef %14, ptr noundef nonnull align 8 dereferenceable(24) %7)
          to label %15 unwind label %30

15:                                               ; preds = %13
  %16 = load ptr, ptr %7, align 8
  %17 = getelementptr inbounds i8, ptr %7, i64 8
  %18 = load ptr, ptr %17, align 8
  %.not4.i.i.i.i.i = icmp eq ptr %16, %18
  br i1 %.not4.i.i.i.i.i, label %_ZSt8_DestroyIPN3gmx20CorrelationBlockDataES1_EvT_S3_RSaIT0_E.exit.i.i, label %.lr.ph.i.i.i.i.i

.lr.ph.i.i.i.i.i:                                 ; preds = %15, %_ZSt8_DestroyIN3gmx20CorrelationBlockDataEEvPT_.exit.i.i.i.i.i
  %.05.i.i.i.i.i = phi ptr [ %25, %_ZSt8_DestroyIN3gmx20CorrelationBlockDataEEvPT_.exit.i.i.i.i.i ], [ %16, %15 ]
  %19 = getelementptr inbounds i8, ptr %.05.i.i.i.i.i, i64 72
  %20 = load ptr, ptr %19, align 8
  %.not.i.i.i.i.i.i.i.i.i.i = icmp eq ptr %20, null
  br i1 %.not.i.i.i.i.i.i.i.i.i.i, label %_ZNSt6vectorIdSaIdEED2Ev.exit.i.i.i.i.i.i.i, label %21

21:                                               ; preds = %.lr.ph.i.i.i.i.i
  call void @_ZdlPv(ptr noundef nonnull %20) #11
  br label %_ZNSt6vectorIdSaIdEED2Ev.exit.i.i.i.i.i.i.i

_ZNSt6vectorIdSaIdEED2Ev.exit.i.i.i.i.i.i.i:      ; preds = %21, %.lr.ph.i.i.i.i.i
  %22 = getelementptr inbounds i8, ptr %.05.i.i.i.i.i, i64 48
  %23 = load ptr, ptr %22, align 8
  %.not.i.i.i1.i.i.i.i.i.i.i = icmp eq ptr %23, null
  br i1 %.not.i.i.i1.i.i.i.i.i.i.i, label %_ZSt8_DestroyIN3gmx20CorrelationBlockDataEEvPT_.exit.i.i.i.i.i, label %24

24:                                               ; preds = %_ZNSt6vectorIdSaIdEED2Ev.exit.i.i.i.i.i.i.i
  call void @_ZdlPv(ptr noundef nonnull %23) #11
  br label %_ZSt8_DestroyIN3gmx20CorrelationBlockDataEEvPT_.exit.i.i.i.i.i

_ZSt8_DestroyIN3gmx20CorrelationBlockDataEEvPT_.exit.i.i.i.i.i: ; preds = %24, %_ZNSt6vectorIdSaIdEED2Ev.exit.i.i.i.i.i.i.i
  %25 = getelementptr inbounds i8, ptr %.05.i.i.i.i.i, i64 96
  %.not.i.i.i.i.i = icmp eq ptr %25, %18
  br i1 %.not.i.i.i.i.i, label %_ZSt8_DestroyIPN3gmx20CorrelationBlockDataES1_EvT_S3_RSaIT0_E.exitthread-pre-split.i.i, label %.lr.ph.i.i.i.i.i, !llvm.loop !5

_ZSt8_DestroyIPN3gmx20CorrelationBlockDataES1_EvT_S3_RSaIT0_E.exitthread-pre-split.i.i: ; preds = %_ZSt8_DestroyIN3gmx20CorrelationBlockDataEEvPT_.exit.i.i.i.i.i
  %.pr.i.i = load ptr, ptr %7, align 8
  br label %_ZSt8_DestroyIPN3gmx20CorrelationBlockDataES1_EvT_S3_RSaIT0_E.exit.i.i

_ZSt8_DestroyIPN3gmx20CorrelationBlockDataES1_EvT_S3_RSaIT0_E.exit.i.i: ; preds = %_ZSt8_DestroyIPN3gmx20CorrelationBlockDataES1_EvT_S3_RSaIT0_E.exitthread-pre-split.i.i, %15
  %26 = phi ptr [ %.pr.i.i, %_ZSt8_DestroyIPN3gmx20CorrelationBlockDataES1_EvT_S3_RSaIT0_E.exitthread-pre-split.i.i ], [ %16, %15 ]
  %.not.i.i.i.i = icmp eq ptr %26, null
  br i1 %.not.i.i.i.i, label %_ZN3gmx17CorrelationTensorD2Ev.exit, label %27

27:                                               ; preds = %_ZSt8_DestroyIPN3gmx20CorrelationBlockDataES1_EvT_S3_RSaIT0_E.exit.i.i
  call void @_ZdlPv(ptr noundef nonnull %26) #11
  br label %_ZN3gmx17CorrelationTensorD2Ev.exit

_ZN3gmx17CorrelationTensorD2Ev.exit:              ; preds = %_ZSt8_DestroyIPN3gmx20CorrelationBlockDataES1_EvT_S3_RSaIT0_E.exit.i.i, %27
  ret void

28:                                               ; preds = %6
  %29 = landingpad { ptr, i32 }
          cleanup
  br label %32

30:                                               ; preds = %13
  %31 = landingpad { ptr, i32 }
          cleanup
  call void @_ZN3gmx17CorrelationTensorD2Ev(ptr noundef nonnull align 8 dereferenceable(24) %7) #12
  br label %32

32:                                               ; preds = %30, %28
  %.pn = phi { ptr, i32 } [ %31, %30 ], [ %29, %28 ]
  call void @_ZNSt6vectorIN3gmx17CorrelationTensorESaIS1_EED2Ev(ptr noundef nonnull align 8 dereferenceable(24) %9) #12
  resume { ptr, i32 } %.pn
}